target datalayout = "e-m:e-p270:32:32-p271:32:32-p272:64:64-i64:64-i128:128-f80:128-n8:16:32:64-S128"
target triple = "x86_64-pc-linux-gnu"

%struct.__storeu_ps = type { <4 x float> }
%struct.__loadu_si128 = type { <2 x i64> }

; Function Attrs: alwaysinline nounwind uwtable
define available_externally void @_mm_storeu_ps(ptr noundef %0, <4 x float> noundef %1) #2 {
  %3 = alloca ptr, align 8
  %4 = alloca <4 x float>, align 16
  store ptr %0, ptr %3, align 8, !tbaa !21
  store <4 x float> %1, ptr %4, align 16, !tbaa !12
  %5 = load <4 x float>, ptr %4, align 16, !tbaa !12
  %6 = load ptr, ptr %3, align 8, !tbaa !21
  %7 = getelementptr inbounds nuw %struct.__storeu_ps, ptr %6, i32 0, i32 0
  store <4 x float> %5, ptr %7, align 1, !tbaa !12
  ret void
}

; Function Attrs: alwaysinline nounwind uwtable
define available_externally <4 x float> @_mm_castsi128_ps(<2 x i64> noundef %0) #2 {
  %2 = alloca <2 x i64>, align 16
  store <2 x i64> %0, ptr %2, align 16, !tbaa !12
  %3 = load <2 x i64>, ptr %2, align 16, !tbaa !12
  %4 = bitcast <2 x i64> %3 to <4 x float>
  ret <4 x float> %4
}

; Function Attrs: alwaysinline nounwind uwtable
define available_externally <2 x i64> @_mm_castps_si128(<4 x float> noundef %0) #2 {
  %2 = alloca <4 x float>, align 16
  store <4 x float> %0, ptr %2, align 16, !tbaa !12
  %3 = load <4 x float>, ptr %2, align 16, !tbaa !12
  %4 = bitcast <4 x float> %3 to <2 x i64>
  ret <2 x i64> %4
}

; Function Attrs: alwaysinline nounwind uwtable
define available_externally <4 x float> @_mm_cvtepi32_ps(<2 x i64> noundef %0) #2 {
  %2 = alloca <2 x i64>, align 16
  store <2 x i64> %0, ptr %2, align 16, !tbaa !12
  %3 = load <2 x i64>, ptr %2, align 16, !tbaa !12
  %4 = bitcast <2 x i64> %3 to <4 x i32>
  %5 = sitofp <4 x i32> %4 to <4 x float>
  ret <4 x float> %5
}

; Function Attrs: alwaysinline nounwind uwtable
define available_externally <2 x i64> @_mm_unpackhi_epi16(<2 x i64> noundef %0, <2 x i64> noundef %1) #2 {
  %3 = alloca <2 x i64>, align 16
  %4 = alloca <2 x i64>, align 16
  store <2 x i64> %0, ptr %3, align 16, !tbaa !12
  store <2 x i64> %1, ptr %4, align 16, !tbaa !12
  %5 = load <2 x i64>, ptr %3, align 16, !tbaa !12
  %6 = bitcast <2 x i64> %5 to <8 x i16>
  %7 = load <2 x i64>, ptr %4, align 16, !tbaa !12
  %8 = bitcast <2 x i64> %7 to <8 x i16>
  %9 = shufflevector <8 x i16> %6, <8 x i16> %8, <8 x i32> <i32 4, i32 12, i32 5, i32 13, i32 6, i32 14, i32 7, i32 15>
  %10 = bitcast <8 x i16> %9 to <2 x i64>
  ret <2 x i64> %10
}

; Function Attrs: alwaysinline nounwind uwtable
define available_externally <2 x i64> @_mm_unpacklo_epi16(<2 x i64> noundef %0, <2 x i64> noundef %1) #2 {
  %3 = alloca <2 x i64>, align 16
  %4 = alloca <2 x i64>, align 16
  store <2 x i64> %0, ptr %3, align 16, !tbaa !12
  store <2 x i64> %1, ptr %4, align 16, !tbaa !12
  %5 = load <2 x i64>, ptr %3, align 16, !tbaa !12
  %6 = bitcast <2 x i64> %5 to <8 x i16>
  %7 = load <2 x i64>, ptr %4, align 16, !tbaa !12
  %8 = bitcast <2 x i64> %7 to <8 x i16>
  %9 = shufflevector <8 x i16> %6, <8 x i16> %8, <8 x i32> <i32 0, i32 8, i32 1, i32 9, i32 2, i32 10, i32 3, i32 11>
  %10 = bitcast <8 x i16> %9 to <2 x i64>
  ret <2 x i64> %10
}

; Function Attrs: alwaysinline nounwind uwtable
define available_externally <2 x i64> @_mm_unpackhi_epi8(<2 x i64> noundef %0, <2 x i64> noundef %1) #2 {
  %3 = alloca <2 x i64>, align 16
  %4 = alloca <2 x i64>, align 16
  store <2 x i64> %0, ptr %3, align 16, !tbaa !12
  store <2 x i64> %1, ptr %4, align 16, !tbaa !12
  %5 = load <2 x i64>, ptr %3, align 16, !tbaa !12
  %6 = bitcast <2 x i64> %5 to <16 x i8>
  %7 = load <2 x i64>, ptr %4, align 16, !tbaa !12
  %8 = bitcast <2 x i64> %7 to <16 x i8>
  %9 = shufflevector <16 x i8> %6, <16 x i8> %8, <16 x i32> <i32 8, i32 24, i32 9, i32 25, i32 10, i32 26, i32 11, i32 27, i32 12, i32 28, i32 13, i32 29, i32 14, i32 30, i32 15, i32 31>
  %10 = bitcast <16 x i8> %9 to <2 x i64>
  ret <2 x i64> %10
}

; Function Attrs: alwaysinline nounwind uwtable
define available_externally <2 x i64> @_mm_unpacklo_epi8(<2 x i64> noundef %0, <2 x i64> noundef %1) #2 {
  %3 = alloca <2 x i64>, align 16
  %4 = alloca <2 x i64>, align 16
  store <2 x i64> %0, ptr %3, align 16, !tbaa !12
  store <2 x i64> %1, ptr %4, align 16, !tbaa !12
  %5 = load <2 x i64>, ptr %3, align 16, !tbaa !12
  %6 = bitcast <2 x i64> %5 to <16 x i8>
  %7 = load <2 x i64>, ptr %4, align 16, !tbaa !12
  %8 = bitcast <2 x i64> %7 to <16 x i8>
  %9 = shufflevector <16 x i8> %6, <16 x i8> %8, <16 x i32> <i32 0, i32 16, i32 1, i32 17, i32 2, i32 18, i32 3, i32 19, i32 4, i32 20, i32 5, i32 21, i32 6, i32 22, i32 7, i32 23>
  %10 = bitcast <16 x i8> %9 to <2 x i64>
  ret <2 x i64> %10
}

; Function Attrs: alwaysinline nounwind uwtable
define available_externally <2 x i64> @_mm_setzero_si128() #2 {
  %1 = alloca <2 x i64>, align 16
  store <2 x i64> zeroinitializer, ptr %1, align 16, !tbaa !12
  %2 = load <2 x i64>, ptr %1, align 16, !tbaa !12
  ret <2 x i64> %2
}

; Function Attrs: alwaysinline nounwind uwtable
define available_externally <2 x i64> @_mm_loadu_si128(ptr noundef %0) #2 {
  %2 = alloca ptr, align 8
  store ptr %0, ptr %2, align 8, !tbaa !3
  %3 = load ptr, ptr %2, align 8, !tbaa !3
  %4 = getelementptr inbounds nuw %struct.__loadu_si128, ptr %3, i32 0, i32 0
  %5 = load <2 x i64>, ptr %4, align 1, !tbaa !12
  ret <2 x i64> %5
}

; Function Attrs: nounwind uwtable
define void @stbir__decode_uint8_linear_ARGB(ptr noundef %0, i32 noundef %1, ptr noundef %2) #0 {
  %4 = alloca ptr, align 8
  %5 = alloca i32, align 4
  %6 = alloca ptr, align 8
  %7 = alloca ptr, align 8
  %8 = alloca ptr, align 8
  %9 = alloca ptr, align 8
  %10 = alloca ptr, align 8
  %11 = alloca <2 x i64>, align 16
  %12 = alloca <2 x i64>, align 16
  %13 = alloca <2 x i64>, align 16
  %14 = alloca <2 x i64>, align 16
  %15 = alloca <2 x i64>, align 16
  %16 = alloca <4 x float>, align 16
  %17 = alloca <4 x float>, align 16
  %18 = alloca <4 x float>, align 16
  %19 = alloca <4 x float>, align 16
  %20 = alloca <2 x i64>, align 16
  %21 = alloca i32, align 4
  store ptr %0, ptr %4, align 8, !tbaa !21
  store i32 %1, ptr %5, align 4, !tbaa !26
  store ptr %2, ptr %6, align 8, !tbaa !3
  call void @llvm.lifetime.start.p0(i64 8, ptr %7) #12
  %22 = load ptr, ptr %4, align 8, !tbaa !21
  store ptr %22, ptr %7, align 8, !tbaa !21
  call void @llvm.lifetime.start.p0(i64 8, ptr %8) #12
  %23 = load ptr, ptr %7, align 8, !tbaa !21
  %24 = load i32, ptr %5, align 4, !tbaa !26
  %25 = sext i32 %24 to i64
  %26 = getelementptr inbounds float, ptr %23, i64 %25
  store ptr %26, ptr %8, align 8, !tbaa !21
  call void @llvm.lifetime.start.p0(i64 8, ptr %9) #12
  %27 = load ptr, ptr %6, align 8, !tbaa !3
  store ptr %27, ptr %9, align 8, !tbaa !9
  call void @llvm.lifetime.start.p0(i64 8, ptr %10) #12
  %28 = load ptr, ptr %9, align 8, !tbaa !9
  %29 = load i32, ptr %5, align 4, !tbaa !26
  %30 = sext i32 %29 to i64
  %31 = getelementptr inbounds i8, ptr %28, i64 %30
  %32 = getelementptr inbounds i8, ptr %31, i64 -16
  store ptr %32, ptr %10, align 8, !tbaa !9
  %33 = load i32, ptr %5, align 4, !tbaa !26
  %34 = icmp sge i32 %33, 16
  br i1 %34, label %35, label %126

35:                                               ; preds = %3
  %36 = load ptr, ptr %8, align 8, !tbaa !21
  %37 = getelementptr inbounds float, ptr %36, i64 -16
  store ptr %37, ptr %8, align 8, !tbaa !21
  br label %38

38:                                               ; preds = %124, %122, %35
  call void @llvm.lifetime.start.p0(i64 16, ptr %11) #12
  call void @llvm.lifetime.start.p0(i64 16, ptr %12) #12
  call void @llvm.lifetime.start.p0(i64 16, ptr %13) #12
  call void @llvm.lifetime.start.p0(i64 16, ptr %14) #12
  call void @llvm.lifetime.start.p0(i64 16, ptr %15) #12
  call void @llvm.lifetime.start.p0(i64 16, ptr %16) #12
  call void @llvm.lifetime.start.p0(i64 16, ptr %17) #12
  call void @llvm.lifetime.start.p0(i64 16, ptr %18) #12
  call void @llvm.lifetime.start.p0(i64 16, ptr %19) #12
  %39 = load ptr, ptr %7, align 8, !tbaa !21
  call void asm sideeffect "", "r,~{dirflag},~{fpsr},~{flags}"(ptr %39) #12, !srcloc !300
  %40 = load ptr, ptr %9, align 8, !tbaa !9
  %41 = call <2 x i64> @_mm_loadu_si128(ptr noundef %40)
  store <2 x i64> %41, ptr %11, align 16, !tbaa !12
  call void @llvm.lifetime.start.p0(i64 16, ptr %20) #12
  %42 = call <2 x i64> @_mm_setzero_si128()
  store <2 x i64> %42, ptr %20, align 16, !tbaa !12
  %43 = load <2 x i64>, ptr %11, align 16, !tbaa !12
  %44 = load <2 x i64>, ptr %20, align 16, !tbaa !12
  %45 = call <2 x i64> @_mm_unpacklo_epi8(<2 x i64> noundef %43, <2 x i64> noundef %44)
  store <2 x i64> %45, ptr %14, align 16, !tbaa !12
  %46 = load <2 x i64>, ptr %11, align 16, !tbaa !12
  %47 = load <2 x i64>, ptr %20, align 16, !tbaa !12
  %48 = call <2 x i64> @_mm_unpackhi_epi8(<2 x i64> noundef %46, <2 x i64> noundef %47)
  store <2 x i64> %48, ptr %15, align 16, !tbaa !12
  %49 = load <2 x i64>, ptr %14, align 16, !tbaa !12
  %50 = load <2 x i64>, ptr %20, align 16, !tbaa !12
  %51 = call <2 x i64> @_mm_unpacklo_epi16(<2 x i64> noundef %49, <2 x i64> noundef %50)
  store <2 x i64> %51, ptr %12, align 16, !tbaa !12
  %52 = load <2 x i64>, ptr %14, align 16, !tbaa !12
  %53 = load <2 x i64>, ptr %20, align 16, !tbaa !12
  %54 = call <2 x i64> @_mm_unpackhi_epi16(<2 x i64> noundef %52, <2 x i64> noundef %53)
  store <2 x i64> %54, ptr %13, align 16, !tbaa !12
  %55 = load <2 x i64>, ptr %15, align 16, !tbaa !12
  %56 = load <2 x i64>, ptr %20, align 16, !tbaa !12
  %57 = call <2 x i64> @_mm_unpacklo_epi16(<2 x i64> noundef %55, <2 x i64> noundef %56)
  store <2 x i64> %57, ptr %14, align 16, !tbaa !12
  %58 = load <2 x i64>, ptr %15, align 16, !tbaa !12
  %59 = load <2 x i64>, ptr %20, align 16, !tbaa !12
  %60 = call <2 x i64> @_mm_unpackhi_epi16(<2 x i64> noundef %58, <2 x i64> noundef %59)
  store <2 x i64> %60, ptr %15, align 16, !tbaa !12
  call void @llvm.lifetime.end.p0(i64 16, ptr %20) #12
  %61 = load <2 x i64>, ptr %12, align 16, !tbaa !12
  %62 = call <4 x float> @_mm_cvtepi32_ps(<2 x i64> noundef %61)
  store <4 x float> %62, ptr %16, align 16, !tbaa !12
  %63 = load <2 x i64>, ptr %13, align 16, !tbaa !12
  %64 = call <4 x float> @_mm_cvtepi32_ps(<2 x i64> noundef %63)
  store <4 x float> %64, ptr %17, align 16, !tbaa !12
  %65 = load <2 x i64>, ptr %14, align 16, !tbaa !12
  %66 = call <4 x float> @_mm_cvtepi32_ps(<2 x i64> noundef %65)
  store <4 x float> %66, ptr %18, align 16, !tbaa !12
  %67 = load <2 x i64>, ptr %15, align 16, !tbaa !12
  %68 = call <4 x float> @_mm_cvtepi32_ps(<2 x i64> noundef %67)
  store <4 x float> %68, ptr %19, align 16, !tbaa !12
  %69 = load <4 x float>, ptr %16, align 16, !tbaa !12
  %70 = call <2 x i64> @_mm_castps_si128(<4 x float> noundef %69)
  %71 = bitcast <2 x i64> %70 to <4 x i32>
  %72 = shufflevector <4 x i32> %71, <4 x i32> poison, <4 x i32> <i32 1, i32 2, i32 3, i32 0>
  %73 = bitcast <4 x i32> %72 to <2 x i64>
  %74 = call <4 x float> @_mm_castsi128_ps(<2 x i64> noundef %73)
  store <4 x float> %74, ptr %16, align 16, !tbaa !12
  %75 = load <4 x float>, ptr %17, align 16, !tbaa !12
  %76 = call <2 x i64> @_mm_castps_si128(<4 x float> noundef %75)
  %77 = bitcast <2 x i64> %76 to <4 x i32>
  %78 = shufflevector <4 x i32> %77, <4 x i32> poison, <4 x i32> <i32 1, i32 2, i32 3, i32 0>
  %79 = bitcast <4 x i32> %78 to <2 x i64>
  %80 = call <4 x float> @_mm_castsi128_ps(<2 x i64> noundef %79)
  store <4 x float> %80, ptr %17, align 16, !tbaa !12
  %81 = load <4 x float>, ptr %18, align 16, !tbaa !12
  %82 = call <2 x i64> @_mm_castps_si128(<4 x float> noundef %81)
  %83 = bitcast <2 x i64> %82 to <4 x i32>
  %84 = shufflevector <4 x i32> %83, <4 x i32> poison, <4 x i32> <i32 1, i32 2, i32 3, i32 0>
  %85 = bitcast <4 x i32> %84 to <2 x i64>
  %86 = call <4 x float> @_mm_castsi128_ps(<2 x i64> noundef %85)
  store <4 x float> %86, ptr %18, align 16, !tbaa !12
  %87 = load <4 x float>, ptr %19, align 16, !tbaa !12
  %88 = call <2 x i64> @_mm_castps_si128(<4 x float> noundef %87)
  %89 = bitcast <2 x i64> %88 to <4 x i32>
  %90 = shufflevector <4 x i32> %89, <4 x i32> poison, <4 x i32> <i32 1, i32 2, i32 3, i32 0>
  %91 = bitcast <4 x i32> %90 to <2 x i64>
  %92 = call <4 x float> @_mm_castsi128_ps(<2 x i64> noundef %91)
  store <4 x float> %92, ptr %19, align 16, !tbaa !12
  %93 = load ptr, ptr %7, align 8, !tbaa !21
  %94 = getelementptr inbounds float, ptr %93, i64 0
  %95 = load <4 x float>, ptr %16, align 16, !tbaa !12
  call void @_mm_storeu_ps(ptr noundef %94, <4 x float> noundef %95)
  %96 = load ptr, ptr %7, align 8, !tbaa !21
  %97 = getelementptr inbounds float, ptr %96, i64 4
  %98 = load <4 x float>, ptr %17, align 16, !tbaa !12
  call void @_mm_storeu_ps(ptr noundef %97, <4 x float> noundef %98)
  %99 = load ptr, ptr %7, align 8, !tbaa !21
  %100 = getelementptr inbounds float, ptr %99, i64 8
  %101 = load <4 x float>, ptr %18, align 16, !tbaa !12
  call void @_mm_storeu_ps(ptr noundef %100, <4 x float> noundef %101)
  %102 = load ptr, ptr %7, align 8, !tbaa !21
  %103 = getelementptr inbounds float, ptr %102, i64 12
  %104 = load <4 x float>, ptr %19, align 16, !tbaa !12
  call void @_mm_storeu_ps(ptr noundef %103, <4 x float> noundef %104)
  %105 = load ptr, ptr %7, align 8, !tbaa !21
  %106 = getelementptr inbounds float, ptr %105, i64 16
  store ptr %106, ptr %7, align 8, !tbaa !21
  %107 = load ptr, ptr %9, align 8, !tbaa !9
  %108 = getelementptr inbounds i8, ptr %107, i64 16
  store ptr %108, ptr %9, align 8, !tbaa !9
  %109 = load ptr, ptr %7, align 8, !tbaa !21
  %110 = load ptr, ptr %8, align 8, !tbaa !21
  %111 = icmp ule ptr %109, %110
  br i1 %111, label %112, label %113

112:                                              ; preds = %38
  store i32 3, ptr %21, align 4
  br label %122, !llvm.loop !301

113:                                              ; preds = %38
  %114 = load ptr, ptr %7, align 8, !tbaa !21
  %115 = load ptr, ptr %8, align 8, !tbaa !21
  %116 = getelementptr inbounds float, ptr %115, i64 16
  %117 = icmp eq ptr %114, %116
  br i1 %117, label %118, label %119

118:                                              ; preds = %113
  store i32 2, ptr %21, align 4
  br label %122

119:                                              ; preds = %113
  %120 = load ptr, ptr %8, align 8, !tbaa !21
  store ptr %120, ptr %7, align 8, !tbaa !21
  %121 = load ptr, ptr %10, align 8, !tbaa !9
  store ptr %121, ptr %9, align 8, !tbaa !9
  store i32 0, ptr %21, align 4
  br label %122

122:                                              ; preds = %119, %118, %112
  call void @llvm.lifetime.end.p0(i64 16, ptr %19) #12
  call void @llvm.lifetime.end.p0(i64 16, ptr %18) #12
  call void @llvm.lifetime.end.p0(i64 16, ptr %17) #12
  call void @llvm.lifetime.end.p0(i64 16, ptr %16) #12
  call void @llvm.lifetime.end.p0(i64 16, ptr %15) #12
  call void @llvm.lifetime.end.p0(i64 16, ptr %14) #12
  call void @llvm.lifetime.end.p0(i64 16, ptr %13) #12
  call void @llvm.lifetime.end.p0(i64 16, ptr %12) #12
  call void @llvm.lifetime.end.p0(i64 16, ptr %11) #12
  %123 = load i32, ptr %21, align 4
  switch i32 %123, label %169 [
    i32 0, label %124
    i32 3, label %38
    i32 2, label %125
  ]

124:                                              ; preds = %122
  br label %38, !llvm.loop !301

125:                                              ; preds = %122
  store i32 1, ptr %21, align 4
  br label %166

126:                                              ; preds = %3
  %127 = load ptr, ptr %7, align 8, !tbaa !21
  %128 = getelementptr inbounds float, ptr %127, i64 4
  store ptr %128, ptr %7, align 8, !tbaa !21
  br label %129

129:                                              ; preds = %133, %126
  %130 = load ptr, ptr %7, align 8, !tbaa !21
  %131 = load ptr, ptr %8, align 8, !tbaa !21
  %132 = icmp ule ptr %130, %131
  br i1 %132, label %133, label %163

133:                                              ; preds = %129
  %134 = load ptr, ptr %7, align 8, !tbaa !21
  call void asm sideeffect "", "r,~{dirflag},~{fpsr},~{flags}"(ptr %134) #12, !srcloc !302
  %135 = load ptr, ptr %9, align 8, !tbaa !9
  %136 = getelementptr inbounds i8, ptr %135, i64 1
  %137 = load i8, ptr %136, align 1, !tbaa !12
  %138 = uitofp i8 %137 to float
  %139 = load ptr, ptr %7, align 8, !tbaa !21
  %140 = getelementptr inbounds float, ptr %139, i64 -4
  store float %138, ptr %140, align 4, !tbaa !29
  %141 = load ptr, ptr %9, align 8, !tbaa !9
  %142 = getelementptr inbounds i8, ptr %141, i64 2
  %143 = load i8, ptr %142, align 1, !tbaa !12
  %144 = uitofp i8 %143 to float
  %145 = load ptr, ptr %7, align 8, !tbaa !21
  %146 = getelementptr inbounds float, ptr %145, i64 -3
  store float %144, ptr %146, align 4, !tbaa !29
  %147 = load ptr, ptr %9, align 8, !tbaa !9
  %148 = getelementptr inbounds i8, ptr %147, i64 3
  %149 = load i8, ptr %148, align 1, !tbaa !12
  %150 = uitofp i8 %149 to float
  %151 = load ptr, ptr %7, align 8, !tbaa !21
  %152 = getelementptr inbounds float, ptr %151, i64 -2
  store float %150, ptr %152, align 4, !tbaa !29
  %153 = load ptr, ptr %9, align 8, !tbaa !9
  %154 = getelementptr inbounds i8, ptr %153, i64 0
  %155 = load i8, ptr %154, align 1, !tbaa !12
  %156 = uitofp i8 %155 to float
  %157 = load ptr, ptr %7, align 8, !tbaa !21
  %158 = getelementptr inbounds float, ptr %157, i64 -1
  store float %156, ptr %158, align 4, !tbaa !29
  %159 = load ptr, ptr %7, align 8, !tbaa !21
  %160 = getelementptr inbounds float, ptr %159, i64 4
  store ptr %160, ptr %7, align 8, !tbaa !21
  %161 = load ptr, ptr %9, align 8, !tbaa !9
  %162 = getelementptr inbounds i8, ptr %161, i64 4
  store ptr %162, ptr %9, align 8, !tbaa !9
  br label %129, !llvm.loop !303

163:                                              ; preds = %129
  %164 = load ptr, ptr %7, align 8, !tbaa !21
  %165 = getelementptr inbounds float, ptr %164, i64 -4
  store ptr %165, ptr %7, align 8, !tbaa !21
  store i32 0, ptr %21, align 4
  br label %166

166:                                              ; preds = %163, %125
  call void @llvm.lifetime.end.p0(i64 8, ptr %10) #12
  call void @llvm.lifetime.end.p0(i64 8, ptr %9) #12
  call void @llvm.lifetime.end.p0(i64 8, ptr %8) #12
  call void @llvm.lifetime.end.p0(i64 8, ptr %7) #12
  %167 = load i32, ptr %21, align 4
  switch i32 %167, label %169 [
    i32 0, label %168
    i32 1, label %168
  ]

168:                                              ; preds = %166, %166
  ret void

169:                                              ; preds = %166, %122
  unreachable
}