; Function Attrs: nounwind uwtable
define void @stbir__decode_uint8_linear_ARGB(ptr noundef %0, i32 noundef %1, ptr noundef readonly captures(none) %2) #0 {
  %4 = sext i32 %1 to i64
  %.idx = shl nsw i64 %4, 2
  %5 = getelementptr inbounds i8, ptr %0, i64 %.idx
  %6 = getelementptr inbounds i8, ptr %2, i64 %4
  %7 = getelementptr inbounds i8, ptr %6, i64 -16
  %8 = icmp sgt i32 %1, 15
  br i1 %8, label %9, label %.preheader

.preheader:                                       ; preds = %3
  %.not73 = icmp slt i32 %1, 4
  br i1 %.not73, label %.loopexit, label %.lr.ph.preheader

.lr.ph.preheader:                                 ; preds = %.preheader
  %.272 = getelementptr inbounds nuw i8, ptr %0, i64 16
  br label %.lr.ph

9:                                                ; preds = %3
  %10 = getelementptr inbounds i8, ptr %5, i64 -64
  br label %11

11:                                               ; preds = %11, %9
  %.062 = phi ptr [ %2, %9 ], [ %.163, %11 ]
  %.061 = phi ptr [ %0, %9 ], [ %.1, %11 ]
  tail call void asm sideeffect "", "r,~{dirflag},~{fpsr},~{flags}"(ptr %.061) #24, !srcloc !259
  %12 = load <16 x i8>, ptr %.062, align 1, !tbaa !4
  %13 = shufflevector <16 x i8> %12, <16 x i8> <i8 0, i8 0, i8 0, i8 0, i8 0, i8 0, i8 0, i8 0, i8 poison, i8 poison, i8 poison, i8 poison, i8 poison, i8 poison, i8 poison, i8 poison>, <16 x i32> <i32 0, i32 16, i32 1, i32 17, i32 2, i32 18, i32 3, i32 19, i32 4, i32 20, i32 5, i32 21, i32 6, i32 22, i32 7, i32 23>
  %14 = shufflevector <16 x i8> %12, <16 x i8> <i8 poison, i8 poison, i8 poison, i8 poison, i8 poison, i8 poison, i8 poison, i8 poison, i8 0, i8 0, i8 0, i8 0, i8 0, i8 0, i8 0, i8 0>, <16 x i32> <i32 8, i32 24, i32 9, i32 25, i32 10, i32 26, i32 11, i32 27, i32 12, i32 28, i32 13, i32 29, i32 14, i32 30, i32 15, i32 31>
  %15 = bitcast <16 x i8> %13 to <8 x i16>
  %16 = shufflevector <8 x i16> %15, <8 x i16> <i16 0, i16 0, i16 0, i16 0, i16 poison, i16 poison, i16 poison, i16 poison>, <8 x i32> <i32 0, i32 8, i32 1, i32 9, i32 2, i32 10, i32 3, i32 11>
  %17 = shufflevector <8 x i16> %15, <8 x i16> <i16 poison, i16 poison, i16 poison, i16 poison, i16 0, i16 0, i16 0, i16 0>, <8 x i32> <i32 4, i32 12, i32 5, i32 13, i32 6, i32 14, i32 7, i32 15>
  %18 = bitcast <16 x i8> %14 to <8 x i16>
  %19 = shufflevector <8 x i16> %18, <8 x i16> <i16 0, i16 0, i16 0, i16 0, i16 poison, i16 poison, i16 poison, i16 poison>, <8 x i32> <i32 0, i32 8, i32 1, i32 9, i32 2, i32 10, i32 3, i32 11>
  %20 = shufflevector <8 x i16> %18, <8 x i16> <i16 poison, i16 poison, i16 poison, i16 poison, i16 0, i16 0, i16 0, i16 0>, <8 x i32> <i32 4, i32 12, i32 5, i32 13, i32 6, i32 14, i32 7, i32 15>
  %21 = bitcast <8 x i16> %16 to <4 x i32>
  %22 = uitofp nneg <4 x i32> %21 to <4 x float>
  %23 = bitcast <8 x i16> %17 to <4 x i32>
  %24 = uitofp nneg <4 x i32> %23 to <4 x float>
  %25 = bitcast <8 x i16> %19 to <4 x i32>
  %26 = uitofp nneg <4 x i32> %25 to <4 x float>
  %27 = bitcast <8 x i16> %20 to <4 x i32>
  %28 = uitofp nneg <4 x i32> %27 to <4 x float>
  %29 = shufflevector <4 x float> %22, <4 x float> poison, <4 x i32> <i32 1, i32 2, i32 3, i32 0>
  %30 = shufflevector <4 x float> %24, <4 x float> poison, <4 x i32> <i32 1, i32 2, i32 3, i32 0>
  %31 = shufflevector <4 x float> %26, <4 x float> poison, <4 x i32> <i32 1, i32 2, i32 3, i32 0>
  %32 = shufflevector <4 x float> %28, <4 x float> poison, <4 x i32> <i32 1, i32 2, i32 3, i32 0>
  store <4 x float> %29, ptr %.061, align 1, !tbaa !4
  %33 = getelementptr inbounds nuw i8, ptr %.061, i64 16
  store <4 x float> %30, ptr %33, align 1, !tbaa !4
  %34 = getelementptr inbounds nuw i8, ptr %.061, i64 32
  store <4 x float> %31, ptr %34, align 1, !tbaa !4
  %35 = getelementptr inbounds nuw i8, ptr %.061, i64 48
  store <4 x float> %32, ptr %35, align 1, !tbaa !4
  %36 = getelementptr inbounds nuw i8, ptr %.061, i64 64
  %37 = getelementptr inbounds nuw i8, ptr %.062, i64 16
  %.not68 = icmp ugt ptr %36, %10
  %38 = icmp eq ptr %36, %5
  %. = select i1 %38, ptr %37, ptr %7
  %.69 = select i1 %38, ptr %36, ptr %10
  %.163 = select i1 %.not68, ptr %., ptr %37
  %.1 = select i1 %.not68, ptr %.69, ptr %36
  br i1 %38, label %.loopexit, label %11

.lr.ph:                                           ; preds = %.lr.ph.preheader, %.lr.ph
  %.276 = phi ptr [ %.2, %.lr.ph ], [ %.272, %.lr.ph.preheader ]
  %.pn75 = phi ptr [ %.276, %.lr.ph ], [ %0, %.lr.ph.preheader ]
  %.26474 = phi ptr [ %53, %.lr.ph ], [ %2, %.lr.ph.preheader ]
  tail call void asm sideeffect "", "r,~{dirflag},~{fpsr},~{flags}"(ptr nonnull %.276) #24, !srcloc !260
  %39 = getelementptr inbounds nuw i8, ptr %.26474, i64 1
  %40 = load i8, ptr %39, align 1, !tbaa !4
  %41 = uitofp i8 %40 to float
  store float %41, ptr %.pn75, align 4, !tbaa !50
  %42 = getelementptr inbounds nuw i8, ptr %.26474, i64 2
  %43 = load i8, ptr %42, align 1, !tbaa !4
  %44 = uitofp i8 %43 to float
  %45 = getelementptr inbounds nuw i8, ptr %.pn75, i64 4
  store float %44, ptr %45, align 4, !tbaa !50
  %46 = getelementptr inbounds nuw i8, ptr %.26474, i64 3
  %47 = load i8, ptr %46, align 1, !tbaa !4
  %48 = uitofp i8 %47 to float
  %49 = getelementptr inbounds nuw i8, ptr %.pn75, i64 8
  store float %48, ptr %49, align 4, !tbaa !50
  %50 = load i8, ptr %.26474, align 1, !tbaa !4
  %51 = uitofp i8 %50 to float
  %52 = getelementptr inbounds nuw i8, ptr %.pn75, i64 12
  store float %51, ptr %52, align 4, !tbaa !50
  %53 = getelementptr inbounds nuw i8, ptr %.26474, i64 4
  %.2 = getelementptr inbounds nuw i8, ptr %.276, i64 16
  %.not = icmp ugt ptr %.2, %5
  br i1 %.not, label %.loopexit, label %.lr.ph, !llvm.loop !261

.loopexit:                                        ; preds = %.lr.ph, %11, %.preheader
  ret void
}